; Function Attrs: nounwind uwtable
define internal fastcc void @rec_mm_len(ptr noundef %0, i32 noundef %1, ptr noundef nonnull readonly captures(none) %2) unnamed_addr #0 {
  %4 = alloca %struct.RecordIndex, align 8
  call void @llvm.lifetime.start.p0(i64 72, ptr nonnull %4) #8
  %5 = getelementptr inbounds nuw i8, ptr %4, i64 48
  store i32 %1, ptr %5, align 8, !tbaa !49
  %6 = getelementptr inbounds nuw i8, ptr %0, i64 128
  %7 = load i64, ptr %2, align 8, !tbaa !4
  store i64 %7, ptr %4, align 8, !tbaa !4
  %8 = call i32 @lj_record_mm_lookup(ptr noundef %0, ptr noundef nonnull %4, i32 noundef 5)
  %.not = icmp eq i32 %8, 0
  br i1 %.not, label %71, label %9

9:                                                ; preds = %3
  %10 = load ptr, ptr %6, align 8, !tbaa !44
  %11 = getelementptr inbounds nuw i8, ptr %10, i64 32
  %12 = load ptr, ptr %11, align 8, !tbaa !45
  %13 = getelementptr inbounds i8, ptr %12, i64 -16
  %14 = load i64, ptr %13, align 8, !tbaa !4
  %15 = and i64 %14, 140737488355327
  %16 = inttoptr i64 %15 to ptr
  %17 = getelementptr inbounds nuw i8, ptr %16, i64 32
  %18 = load i64, ptr %17, align 8, !tbaa !4
  %19 = inttoptr i64 %18 to ptr
  %20 = getelementptr inbounds i8, ptr %19, i64 -93
  %21 = load i8, ptr %20, align 1, !tbaa !66
  %22 = zext i8 %21 to i32
  %23 = tail call i32 @lj_ir_k64(ptr noundef nonnull %0, i32 noundef 28, i64 noundef ptrtoint (ptr @lj_cont_ra to i64)) #8
  %24 = getelementptr inbounds nuw i8, ptr %0, i64 160
  %25 = load ptr, ptr %24, align 8, !tbaa !43
  %26 = zext i8 %21 to i64
  %27 = getelementptr inbounds nuw i32, ptr %25, i64 %26
  store i32 %23, ptr %27, align 4, !tbaa !37
  %28 = getelementptr inbounds nuw i8, ptr %27, i64 4
  store i32 131072, ptr %28, align 4, !tbaa !37
  %29 = getelementptr inbounds nuw i8, ptr %0, i64 252
  %30 = load i32, ptr %29, align 4, !tbaa !31
  %31 = add nsw i32 %30, 1
  store i32 %31, ptr %29, align 4, !tbaa !31
  %32 = getelementptr inbounds nuw i8, ptr %0, i64 172
  %33 = load i32, ptr %32, align 4, !tbaa !36
  %34 = icmp ult i32 %33, %22
  br i1 %34, label %.lr.ph.preheader.i, label %rec_mm_prep.exit

.lr.ph.preheader.i:                               ; preds = %9
  %35 = zext nneg i32 %33 to i64
  %36 = shl nuw nsw i64 %35, 2
  %scevgep.i = getelementptr i8, ptr %25, i64 %36
  %37 = xor i32 %33, -1
  %38 = add nsw i32 %37, %22
  %39 = zext i32 %38 to i64
  %40 = shl nuw nsw i64 %39, 2
  %41 = add nuw nsw i64 %40, 4
  tail call void @llvm.memset.p0.i64(ptr noundef nonnull align 4 dereferenceable(1) %scevgep.i, i8 0, i64 %41, i1 false), !tbaa !37
  br label %rec_mm_prep.exit

rec_mm_prep.exit:                                 ; preds = %9, %.lr.ph.preheader.i
  %42 = add nuw nsw i32 %22, 2
  %43 = zext nneg i32 %42 to i64
  %44 = getelementptr inbounds nuw i32, ptr %25, i64 %43
  %45 = load ptr, ptr %6, align 8, !tbaa !44
  %46 = getelementptr inbounds nuw i8, ptr %45, i64 32
  %47 = load ptr, ptr %46, align 8, !tbaa !45
  %48 = getelementptr inbounds nuw %union.TValue, ptr %47, i64 %43
  %49 = getelementptr inbounds nuw i8, ptr %4, i64 64
  %50 = load i32, ptr %49, align 8, !tbaa !52
  store i32 %50, ptr %44, align 4, !tbaa !37
  %51 = getelementptr inbounds nuw i8, ptr %4, i64 24
  %52 = load i64, ptr %51, align 8, !tbaa !4
  store i64 %52, ptr %48, align 8, !tbaa !4
  %53 = getelementptr inbounds nuw i8, ptr %44, i64 8
  store i32 %1, ptr %53, align 4, !tbaa !37
  %54 = getelementptr inbounds nuw i8, ptr %48, i64 16
  %55 = load i64, ptr %2, align 8, !tbaa !4
  store i64 %55, ptr %54, align 8, !tbaa !4
  %56 = getelementptr inbounds nuw i8, ptr %44, i64 12
  store i32 32767, ptr %56, align 4, !tbaa !37
  %57 = getelementptr inbounds nuw i8, ptr %48, i64 24
  store i64 -1, ptr %57, align 8, !tbaa !4
  tail call fastcc void @rec_call_setup(ptr noundef nonnull %0, i32 noundef %42, i64 noundef 2)
  %58 = load i32, ptr %29, align 4, !tbaa !31
  %59 = add nsw i32 %58, 1
  store i32 %59, ptr %29, align 4, !tbaa !31
  %60 = add nuw nsw i32 %22, 4
  %61 = load ptr, ptr %24, align 8, !tbaa !43
  %62 = zext nneg i32 %60 to i64
  %63 = getelementptr inbounds nuw i32, ptr %61, i64 %62
  store ptr %63, ptr %24, align 8, !tbaa !43
  %64 = getelementptr inbounds nuw i8, ptr %0, i64 176
  %65 = load i32, ptr %64, align 8, !tbaa !35
  %66 = add i32 %65, %60
  store i32 %66, ptr %64, align 8, !tbaa !35
  %67 = load i32, ptr %32, align 4, !tbaa !36
  %68 = add i32 %67, %66
  %69 = icmp ugt i32 %68, 249
  br i1 %69, label %70, label %lj_record_call.exit

70:                                               ; preds = %rec_mm_prep.exit
  tail call void @lj_trace_err(ptr noundef nonnull %0, i32 noundef 3) #9
  unreachable

lj_record_call.exit:                              ; preds = %rec_mm_prep.exit
  call void @llvm.lifetime.end.p0(i64 72, ptr nonnull %4) #8
  ret void

71:                                               ; preds = %3
  tail call void @lj_trace_err(ptr noundef %0, i32 noundef 18) #9
  unreachable
}